; Function Attrs: mustprogress nounwind uwtable
define hidden void @_ZN10ValueStackC2EP7IRScopePS_(ptr nocapture noundef nonnull writeonly align 8 dereferenceable(81) %0, ptr noundef %1, ptr noundef %2) unnamed_addr #0 align 2 {
  store ptr %1, ptr %0, align 8
  %4 = getelementptr inbounds i8, ptr %0, i64 8
  store ptr %2, ptr %4, align 8
  %5 = getelementptr inbounds i8, ptr %0, i64 16
  store i32 -99, ptr %5, align 8
  %6 = getelementptr inbounds i8, ptr %0, i64 20
  store i32 0, ptr %6, align 4
  %7 = getelementptr inbounds i8, ptr %0, i64 24
  %8 = getelementptr inbounds i8, ptr %1, i64 24
  %9 = load ptr, ptr %8, align 8
  %10 = getelementptr inbounds i8, ptr %9, i64 80
  %11 = load i32, ptr %10, align 8
  %12 = tail call noundef ptr @_ZN30GrowableArrayResourceAllocator8allocateEii(i32 noundef %11, i32 noundef 8) #8
  store i32 %11, ptr %7, align 8
  %13 = getelementptr inbounds i8, ptr %0, i64 28
  store i32 %11, ptr %13, align 4
  %14 = getelementptr inbounds i8, ptr %0, i64 32
  store ptr %12, ptr %14, align 8
  %15 = icmp sgt i32 %11, 0
  br i1 %15, label %.lr.ph.preheader.i.i, label %_ZN13GrowableArrayIP11InstructionEC2EiiRKS1_.exit

.lr.ph.preheader.i.i:                             ; preds = %3
  %wide.trip.count.i.i = zext nneg i32 %11 to i64
  %16 = shl nuw nsw i64 %wide.trip.count.i.i, 3
  tail call void @llvm.memset.p0.i64(ptr align 8 %12, i8 0, i64 %16, i1 false)
  br label %_ZN13GrowableArrayIP11InstructionEC2EiiRKS1_.exit

_ZN13GrowableArrayIP11InstructionEC2EiiRKS1_.exit: ; preds = %.lr.ph.preheader.i.i, %3
  %17 = getelementptr inbounds i8, ptr %0, i64 40
  store i64 0, ptr %17, align 8
  %18 = getelementptr inbounds i8, ptr %0, i64 48
  %19 = load ptr, ptr %8, align 8
  %20 = getelementptr inbounds i8, ptr %19, i64 76
  %21 = load i32, ptr %20, align 4
  %22 = tail call noundef ptr @_ZN30GrowableArrayResourceAllocator8allocateEii(i32 noundef %21, i32 noundef 8) #8
  store i32 0, ptr %18, align 8
  %23 = getelementptr inbounds i8, ptr %0, i64 52
  store i32 %21, ptr %23, align 4
  %24 = getelementptr inbounds i8, ptr %0, i64 56
  store ptr %22, ptr %24, align 8
  %25 = icmp sgt i32 %21, 0
  br i1 %25, label %.lr.ph.preheader.i.i6, label %_ZN13GrowableArrayIP11InstructionEC2Ei.exit

.lr.ph.preheader.i.i6:                            ; preds = %_ZN13GrowableArrayIP11InstructionEC2EiiRKS1_.exit
  %26 = zext nneg i32 %21 to i64
  %27 = shl nuw nsw i64 %26, 3
  tail call void @llvm.memset.p0.i64(ptr align 8 %22, i8 0, i64 %27, i1 false)
  br label %_ZN13GrowableArrayIP11InstructionEC2Ei.exit

_ZN13GrowableArrayIP11InstructionEC2Ei.exit:      ; preds = %_ZN13GrowableArrayIP11InstructionEC2EiiRKS1_.exit, %.lr.ph.preheader.i.i6
  %28 = getelementptr inbounds i8, ptr %0, i64 64
  tail call void @llvm.memset.p0.i64(ptr noundef nonnull align 8 dereferenceable(17) %28, i8 0, i64 17, i1 false)
  ret void
}